target datalayout = "e-m:e-p270:32:32-p271:32:32-p272:64:64-i64:64-i128:128-f80:128-n8:16:32:64-S128"
target triple = "x86_64-pc-linux-gnu"

%struct.siphash = type { i64, i64, i64, i64, [8 x i8], ptr, i64 }

; Function Attrs: nounwind uwtable
define internal void @sip_round(ptr noundef %0, i32 noundef %1) #0 {
  %3 = alloca ptr, align 8
  %4 = alloca i32, align 4
  %5 = alloca i32, align 4
  store ptr %0, ptr %3, align 8, !tbaa !355
  store i32 %1, ptr %4, align 4, !tbaa !177
  call void @llvm.lifetime.start.p0(i64 4, ptr %5) #10
  store i32 0, ptr %5, align 4, !tbaa !177
  br label %6

6:                                                ; preds = %133, %2
  %7 = load i32, ptr %5, align 4, !tbaa !177
  %8 = load i32, ptr %4, align 4, !tbaa !177
  %9 = icmp slt i32 %7, %8
  br i1 %9, label %10, label %136

10:                                               ; preds = %6
  %11 = load ptr, ptr %3, align 8, !tbaa !355
  %12 = getelementptr inbounds nuw %struct.siphash, ptr %11, i32 0, i32 1
  %13 = load i64, ptr %12, align 8, !tbaa !359
  %14 = load ptr, ptr %3, align 8, !tbaa !355
  %15 = getelementptr inbounds nuw %struct.siphash, ptr %14, i32 0, i32 0
  %16 = load i64, ptr %15, align 8, !tbaa !357
  %17 = add i64 %16, %13
  store i64 %17, ptr %15, align 8, !tbaa !357
  %18 = load ptr, ptr %3, align 8, !tbaa !355
  %19 = getelementptr inbounds nuw %struct.siphash, ptr %18, i32 0, i32 1
  %20 = load i64, ptr %19, align 8, !tbaa !359
  %21 = shl i64 %20, 13
  %22 = load ptr, ptr %3, align 8, !tbaa !355
  %23 = getelementptr inbounds nuw %struct.siphash, ptr %22, i32 0, i32 1
  %24 = load i64, ptr %23, align 8, !tbaa !359
  %25 = lshr i64 %24, 51
  %26 = or i64 %21, %25
  %27 = load ptr, ptr %3, align 8, !tbaa !355
  %28 = getelementptr inbounds nuw %struct.siphash, ptr %27, i32 0, i32 1
  store i64 %26, ptr %28, align 8, !tbaa !359
  %29 = load ptr, ptr %3, align 8, !tbaa !355
  %30 = getelementptr inbounds nuw %struct.siphash, ptr %29, i32 0, i32 0
  %31 = load i64, ptr %30, align 8, !tbaa !357
  %32 = load ptr, ptr %3, align 8, !tbaa !355
  %33 = getelementptr inbounds nuw %struct.siphash, ptr %32, i32 0, i32 1
  %34 = load i64, ptr %33, align 8, !tbaa !359
  %35 = xor i64 %34, %31
  store i64 %35, ptr %33, align 8, !tbaa !359
  %36 = load ptr, ptr %3, align 8, !tbaa !355
  %37 = getelementptr inbounds nuw %struct.siphash, ptr %36, i32 0, i32 0
  %38 = load i64, ptr %37, align 8, !tbaa !357
  %39 = shl i64 %38, 32
  %40 = load ptr, ptr %3, align 8, !tbaa !355
  %41 = getelementptr inbounds nuw %struct.siphash, ptr %40, i32 0, i32 0
  %42 = load i64, ptr %41, align 8, !tbaa !357
  %43 = lshr i64 %42, 32
  %44 = or i64 %39, %43
  %45 = load ptr, ptr %3, align 8, !tbaa !355
  %46 = getelementptr inbounds nuw %struct.siphash, ptr %45, i32 0, i32 0
  store i64 %44, ptr %46, align 8, !tbaa !357
  %47 = load ptr, ptr %3, align 8, !tbaa !355
  %48 = getelementptr inbounds nuw %struct.siphash, ptr %47, i32 0, i32 3
  %49 = load i64, ptr %48, align 8, !tbaa !361
  %50 = load ptr, ptr %3, align 8, !tbaa !355
  %51 = getelementptr inbounds nuw %struct.siphash, ptr %50, i32 0, i32 2
  %52 = load i64, ptr %51, align 8, !tbaa !360
  %53 = add i64 %52, %49
  store i64 %53, ptr %51, align 8, !tbaa !360
  %54 = load ptr, ptr %3, align 8, !tbaa !355
  %55 = getelementptr inbounds nuw %struct.siphash, ptr %54, i32 0, i32 3
  %56 = load i64, ptr %55, align 8, !tbaa !361
  %57 = shl i64 %56, 16
  %58 = load ptr, ptr %3, align 8, !tbaa !355
  %59 = getelementptr inbounds nuw %struct.siphash, ptr %58, i32 0, i32 3
  %60 = load i64, ptr %59, align 8, !tbaa !361
  %61 = lshr i64 %60, 48
  %62 = or i64 %57, %61
  %63 = load ptr, ptr %3, align 8, !tbaa !355
  %64 = getelementptr inbounds nuw %struct.siphash, ptr %63, i32 0, i32 3
  store i64 %62, ptr %64, align 8, !tbaa !361
  %65 = load ptr, ptr %3, align 8, !tbaa !355
  %66 = getelementptr inbounds nuw %struct.siphash, ptr %65, i32 0, i32 2
  %67 = load i64, ptr %66, align 8, !tbaa !360
  %68 = load ptr, ptr %3, align 8, !tbaa !355
  %69 = getelementptr inbounds nuw %struct.siphash, ptr %68, i32 0, i32 3
  %70 = load i64, ptr %69, align 8, !tbaa !361
  %71 = xor i64 %70, %67
  store i64 %71, ptr %69, align 8, !tbaa !361
  %72 = load ptr, ptr %3, align 8, !tbaa !355
  %73 = getelementptr inbounds nuw %struct.siphash, ptr %72, i32 0, i32 3
  %74 = load i64, ptr %73, align 8, !tbaa !361
  %75 = load ptr, ptr %3, align 8, !tbaa !355
  %76 = getelementptr inbounds nuw %struct.siphash, ptr %75, i32 0, i32 0
  %77 = load i64, ptr %76, align 8, !tbaa !357
  %78 = add i64 %77, %74
  store i64 %78, ptr %76, align 8, !tbaa !357
  %79 = load ptr, ptr %3, align 8, !tbaa !355
  %80 = getelementptr inbounds nuw %struct.siphash, ptr %79, i32 0, i32 3
  %81 = load i64, ptr %80, align 8, !tbaa !361
  %82 = shl i64 %81, 21
  %83 = load ptr, ptr %3, align 8, !tbaa !355
  %84 = getelementptr inbounds nuw %struct.siphash, ptr %83, i32 0, i32 3
  %85 = load i64, ptr %84, align 8, !tbaa !361
  %86 = lshr i64 %85, 43
  %87 = or i64 %82, %86
  %88 = load ptr, ptr %3, align 8, !tbaa !355
  %89 = getelementptr inbounds nuw %struct.siphash, ptr %88, i32 0, i32 3
  store i64 %87, ptr %89, align 8, !tbaa !361
  %90 = load ptr, ptr %3, align 8, !tbaa !355
  %91 = getelementptr inbounds nuw %struct.siphash, ptr %90, i32 0, i32 0
  %92 = load i64, ptr %91, align 8, !tbaa !357
  %93 = load ptr, ptr %3, align 8, !tbaa !355
  %94 = getelementptr inbounds nuw %struct.siphash, ptr %93, i32 0, i32 3
  %95 = load i64, ptr %94, align 8, !tbaa !361
  %96 = xor i64 %95, %92
  store i64 %96, ptr %94, align 8, !tbaa !361
  %97 = load ptr, ptr %3, align 8, !tbaa !355
  %98 = getelementptr inbounds nuw %struct.siphash, ptr %97, i32 0, i32 1
  %99 = load i64, ptr %98, align 8, !tbaa !359
  %100 = load ptr, ptr %3, align 8, !tbaa !355
  %101 = getelementptr inbounds nuw %struct.siphash, ptr %100, i32 0, i32 2
  %102 = load i64, ptr %101, align 8, !tbaa !360
  %103 = add i64 %102, %99
  store i64 %103, ptr %101, align 8, !tbaa !360
  %104 = load ptr, ptr %3, align 8, !tbaa !355
  %105 = getelementptr inbounds nuw %struct.siphash, ptr %104, i32 0, i32 1
  %106 = load i64, ptr %105, align 8, !tbaa !359
  %107 = shl i64 %106, 17
  %108 = load ptr, ptr %3, align 8, !tbaa !355
  %109 = getelementptr inbounds nuw %struct.siphash, ptr %108, i32 0, i32 1
  %110 = load i64, ptr %109, align 8, !tbaa !359
  %111 = lshr i64 %110, 47
  %112 = or i64 %107, %111
  %113 = load ptr, ptr %3, align 8, !tbaa !355
  %114 = getelementptr inbounds nuw %struct.siphash, ptr %113, i32 0, i32 1
  store i64 %112, ptr %114, align 8, !tbaa !359
  %115 = load ptr, ptr %3, align 8, !tbaa !355
  %116 = getelementptr inbounds nuw %struct.siphash, ptr %115, i32 0, i32 2
  %117 = load i64, ptr %116, align 8, !tbaa !360
  %118 = load ptr, ptr %3, align 8, !tbaa !355
  %119 = getelementptr inbounds nuw %struct.siphash, ptr %118, i32 0, i32 1
  %120 = load i64, ptr %119, align 8, !tbaa !359
  %121 = xor i64 %120, %117
  store i64 %121, ptr %119, align 8, !tbaa !359
  %122 = load ptr, ptr %3, align 8, !tbaa !355
  %123 = getelementptr inbounds nuw %struct.siphash, ptr %122, i32 0, i32 2
  %124 = load i64, ptr %123, align 8, !tbaa !360
  %125 = shl i64 %124, 32
  %126 = load ptr, ptr %3, align 8, !tbaa !355
  %127 = getelementptr inbounds nuw %struct.siphash, ptr %126, i32 0, i32 2
  %128 = load i64, ptr %127, align 8, !tbaa !360
  %129 = lshr i64 %128, 32
  %130 = or i64 %125, %129
  %131 = load ptr, ptr %3, align 8, !tbaa !355
  %132 = getelementptr inbounds nuw %struct.siphash, ptr %131, i32 0, i32 2
  store i64 %130, ptr %132, align 8, !tbaa !360
  br label %133

133:                                              ; preds = %10
  %134 = load i32, ptr %5, align 4, !tbaa !177
  %135 = add nsw i32 %134, 1
  store i32 %135, ptr %5, align 4, !tbaa !177
  br label %6, !llvm.loop !367

136:                                              ; preds = %6
  call void @llvm.lifetime.end.p0(i64 4, ptr %5) #10
  ret void
}

; Function Attrs: nounwind uwtable
define internal i64 @sip24_final(ptr noundef %0) #0 {
  %2 = alloca ptr, align 8
  %3 = alloca i8, align 1
  %4 = alloca i64, align 8
  store ptr %0, ptr %2, align 8, !tbaa !355
  call void @llvm.lifetime.start.p0(i64 1, ptr %3) #10
  %5 = load ptr, ptr %2, align 8, !tbaa !355
  %6 = getelementptr inbounds nuw %struct.siphash, ptr %5, i32 0, i32 5
  %7 = load ptr, ptr %6, align 8, !tbaa !362
  %8 = load ptr, ptr %2, align 8, !tbaa !355
  %9 = getelementptr inbounds nuw %struct.siphash, ptr %8, i32 0, i32 4
  %10 = getelementptr inbounds [8 x i8], ptr %9, i64 0, i64 0
  %11 = ptrtoint ptr %7 to i64
  %12 = ptrtoint ptr %10 to i64
  %13 = sub i64 %11, %12
  %14 = trunc i64 %13 to i8
  store i8 %14, ptr %3, align 1, !tbaa !10
  call void @llvm.lifetime.start.p0(i64 8, ptr %4) #10
  %15 = load ptr, ptr %2, align 8, !tbaa !355
  %16 = getelementptr inbounds nuw %struct.siphash, ptr %15, i32 0, i32 6
  %17 = load i64, ptr %16, align 8, !tbaa !363
  %18 = load i8, ptr %3, align 1, !tbaa !10
  %19 = sext i8 %18 to i64
  %20 = add i64 %17, %19
  %21 = shl i64 %20, 56
  store i64 %21, ptr %4, align 8, !tbaa !161
  %22 = load i8, ptr %3, align 1, !tbaa !10
  %23 = sext i8 %22 to i32
  switch i32 %23, label %87 [
    i32 7, label %24
    i32 6, label %33
    i32 5, label %42
    i32 4, label %51
    i32 3, label %60
    i32 2, label %69
    i32 1, label %78
    i32 0, label %87
  ]

24:                                               ; preds = %1
  %25 = load ptr, ptr %2, align 8, !tbaa !355
  %26 = getelementptr inbounds nuw %struct.siphash, ptr %25, i32 0, i32 4
  %27 = getelementptr inbounds [8 x i8], ptr %26, i64 0, i64 6
  %28 = load i8, ptr %27, align 2, !tbaa !10
  %29 = zext i8 %28 to i64
  %30 = shl i64 %29, 48
  %31 = load i64, ptr %4, align 8, !tbaa !161
  %32 = or i64 %31, %30
  store i64 %32, ptr %4, align 8, !tbaa !161
  br label %33

33:                                               ; preds = %1, %24
  %34 = load ptr, ptr %2, align 8, !tbaa !355
  %35 = getelementptr inbounds nuw %struct.siphash, ptr %34, i32 0, i32 4
  %36 = getelementptr inbounds [8 x i8], ptr %35, i64 0, i64 5
  %37 = load i8, ptr %36, align 1, !tbaa !10
  %38 = zext i8 %37 to i64
  %39 = shl i64 %38, 40
  %40 = load i64, ptr %4, align 8, !tbaa !161
  %41 = or i64 %40, %39
  store i64 %41, ptr %4, align 8, !tbaa !161
  br label %42

42:                                               ; preds = %1, %33
  %43 = load ptr, ptr %2, align 8, !tbaa !355
  %44 = getelementptr inbounds nuw %struct.siphash, ptr %43, i32 0, i32 4
  %45 = getelementptr inbounds [8 x i8], ptr %44, i64 0, i64 4
  %46 = load i8, ptr %45, align 4, !tbaa !10
  %47 = zext i8 %46 to i64
  %48 = shl i64 %47, 32
  %49 = load i64, ptr %4, align 8, !tbaa !161
  %50 = or i64 %49, %48
  store i64 %50, ptr %4, align 8, !tbaa !161
  br label %51

51:                                               ; preds = %1, %42
  %52 = load ptr, ptr %2, align 8, !tbaa !355
  %53 = getelementptr inbounds nuw %struct.siphash, ptr %52, i32 0, i32 4
  %54 = getelementptr inbounds [8 x i8], ptr %53, i64 0, i64 3
  %55 = load i8, ptr %54, align 1, !tbaa !10
  %56 = zext i8 %55 to i64
  %57 = shl i64 %56, 24
  %58 = load i64, ptr %4, align 8, !tbaa !161
  %59 = or i64 %58, %57
  store i64 %59, ptr %4, align 8, !tbaa !161
  br label %60

60:                                               ; preds = %1, %51
  %61 = load ptr, ptr %2, align 8, !tbaa !355
  %62 = getelementptr inbounds nuw %struct.siphash, ptr %61, i32 0, i32 4
  %63 = getelementptr inbounds [8 x i8], ptr %62, i64 0, i64 2
  %64 = load i8, ptr %63, align 2, !tbaa !10
  %65 = zext i8 %64 to i64
  %66 = shl i64 %65, 16
  %67 = load i64, ptr %4, align 8, !tbaa !161
  %68 = or i64 %67, %66
  store i64 %68, ptr %4, align 8, !tbaa !161
  br label %69

69:                                               ; preds = %1, %60
  %70 = load ptr, ptr %2, align 8, !tbaa !355
  %71 = getelementptr inbounds nuw %struct.siphash, ptr %70, i32 0, i32 4
  %72 = getelementptr inbounds [8 x i8], ptr %71, i64 0, i64 1
  %73 = load i8, ptr %72, align 1, !tbaa !10
  %74 = zext i8 %73 to i64
  %75 = shl i64 %74, 8
  %76 = load i64, ptr %4, align 8, !tbaa !161
  %77 = or i64 %76, %75
  store i64 %77, ptr %4, align 8, !tbaa !161
  br label %78

78:                                               ; preds = %1, %69
  %79 = load ptr, ptr %2, align 8, !tbaa !355
  %80 = getelementptr inbounds nuw %struct.siphash, ptr %79, i32 0, i32 4
  %81 = getelementptr inbounds [8 x i8], ptr %80, i64 0, i64 0
  %82 = load i8, ptr %81, align 8, !tbaa !10
  %83 = zext i8 %82 to i64
  %84 = shl i64 %83, 0
  %85 = load i64, ptr %4, align 8, !tbaa !161
  %86 = or i64 %85, %84
  store i64 %86, ptr %4, align 8, !tbaa !161
  br label %87

87:                                               ; preds = %1, %78, %1
  %88 = load i64, ptr %4, align 8, !tbaa !161
  %89 = load ptr, ptr %2, align 8, !tbaa !355
  %90 = getelementptr inbounds nuw %struct.siphash, ptr %89, i32 0, i32 3
  %91 = load i64, ptr %90, align 8, !tbaa !361
  %92 = xor i64 %91, %88
  store i64 %92, ptr %90, align 8, !tbaa !361
  %93 = load ptr, ptr %2, align 8, !tbaa !355
  call void @sip_round(ptr noundef %93, i32 noundef 2)
  %94 = load i64, ptr %4, align 8, !tbaa !161
  %95 = load ptr, ptr %2, align 8, !tbaa !355
  %96 = getelementptr inbounds nuw %struct.siphash, ptr %95, i32 0, i32 0
  %97 = load i64, ptr %96, align 8, !tbaa !357
  %98 = xor i64 %97, %94
  store i64 %98, ptr %96, align 8, !tbaa !357
  %99 = load ptr, ptr %2, align 8, !tbaa !355
  %100 = getelementptr inbounds nuw %struct.siphash, ptr %99, i32 0, i32 2
  %101 = load i64, ptr %100, align 8, !tbaa !360
  %102 = xor i64 %101, 255
  store i64 %102, ptr %100, align 8, !tbaa !360
  %103 = load ptr, ptr %2, align 8, !tbaa !355
  call void @sip_round(ptr noundef %103, i32 noundef 4)
  %104 = load ptr, ptr %2, align 8, !tbaa !355
  %105 = getelementptr inbounds nuw %struct.siphash, ptr %104, i32 0, i32 0
  %106 = load i64, ptr %105, align 8, !tbaa !357
  %107 = load ptr, ptr %2, align 8, !tbaa !355
  %108 = getelementptr inbounds nuw %struct.siphash, ptr %107, i32 0, i32 1
  %109 = load i64, ptr %108, align 8, !tbaa !359
  %110 = xor i64 %106, %109
  %111 = load ptr, ptr %2, align 8, !tbaa !355
  %112 = getelementptr inbounds nuw %struct.siphash, ptr %111, i32 0, i32 2
  %113 = load i64, ptr %112, align 8, !tbaa !360
  %114 = xor i64 %110, %113
  %115 = load ptr, ptr %2, align 8, !tbaa !355
  %116 = getelementptr inbounds nuw %struct.siphash, ptr %115, i32 0, i32 3
  %117 = load i64, ptr %116, align 8, !tbaa !361
  %118 = xor i64 %114, %117
  call void @llvm.lifetime.end.p0(i64 8, ptr %4) #10
  call void @llvm.lifetime.end.p0(i64 1, ptr %3) #10
  ret i64 %118
}