; Function Attrs: nofree norecurse nosync nounwind memory(argmem: readwrite) uwtable
define internal fastcc i64 @sip24_final(ptr noundef nonnull %0) unnamed_addr #14 {
  %2 = getelementptr inbounds nuw i8, ptr %0, i64 40
  %3 = load ptr, ptr %2, align 8, !tbaa !320
  %4 = getelementptr inbounds nuw i8, ptr %0, i64 32
  %5 = ptrtoint ptr %3 to i64
  %6 = ptrtoint ptr %4 to i64
  %7 = sub i64 %5, %6
  %8 = trunc i64 %7 to i32
  %9 = getelementptr inbounds nuw i8, ptr %0, i64 48
  %10 = load i64, ptr %9, align 8, !tbaa !321
  %11 = add i64 %7, %10
  %12 = shl i64 %11, 56
  %sext = shl i32 %8, 24
  %13 = ashr exact i32 %sext, 24
  switch i32 %13, label %54 [
    i32 7, label %14
    i32 6, label %20
    i32 5, label %26
    i32 4, label %32
    i32 3, label %38
    i32 2, label %44
    i32 1, label %50
  ]

14:                                               ; preds = %1
  %15 = getelementptr inbounds nuw i8, ptr %0, i64 38
  %16 = load i8, ptr %15, align 2, !tbaa !4
  %17 = zext i8 %16 to i64
  %18 = shl nuw nsw i64 %17, 48
  %19 = or disjoint i64 %18, %12
  br label %20

20:                                               ; preds = %14, %1
  %.1 = phi i64 [ %12, %1 ], [ %19, %14 ]
  %21 = getelementptr inbounds nuw i8, ptr %0, i64 37
  %22 = load i8, ptr %21, align 1, !tbaa !4
  %23 = zext i8 %22 to i64
  %24 = shl nuw nsw i64 %23, 40
  %25 = or i64 %24, %.1
  br label %26

26:                                               ; preds = %20, %1
  %.2 = phi i64 [ %12, %1 ], [ %25, %20 ]
  %27 = getelementptr inbounds nuw i8, ptr %0, i64 36
  %28 = load i8, ptr %27, align 4, !tbaa !4
  %29 = zext i8 %28 to i64
  %30 = shl nuw nsw i64 %29, 32
  %31 = or i64 %30, %.2
  br label %32

32:                                               ; preds = %26, %1
  %.3 = phi i64 [ %12, %1 ], [ %31, %26 ]
  %33 = getelementptr inbounds nuw i8, ptr %0, i64 35
  %34 = load i8, ptr %33, align 1, !tbaa !4
  %35 = zext i8 %34 to i64
  %36 = shl nuw nsw i64 %35, 24
  %37 = or i64 %36, %.3
  br label %38

38:                                               ; preds = %32, %1
  %.4 = phi i64 [ %12, %1 ], [ %37, %32 ]
  %39 = getelementptr inbounds nuw i8, ptr %0, i64 34
  %40 = load i8, ptr %39, align 2, !tbaa !4
  %41 = zext i8 %40 to i64
  %42 = shl nuw nsw i64 %41, 16
  %43 = or i64 %42, %.4
  br label %44

44:                                               ; preds = %38, %1
  %.5 = phi i64 [ %12, %1 ], [ %43, %38 ]
  %45 = getelementptr inbounds nuw i8, ptr %0, i64 33
  %46 = load i8, ptr %45, align 1, !tbaa !4
  %47 = zext i8 %46 to i64
  %48 = shl nuw nsw i64 %47, 8
  %49 = or i64 %48, %.5
  br label %50

50:                                               ; preds = %44, %1
  %.6 = phi i64 [ %12, %1 ], [ %49, %44 ]
  %51 = load i8, ptr %4, align 8, !tbaa !4
  %52 = zext i8 %51 to i64
  %53 = or i64 %.6, %52
  br label %54

54:                                               ; preds = %50, %1
  %.0 = phi i64 [ %12, %1 ], [ %53, %50 ]
  %55 = getelementptr inbounds nuw i8, ptr %0, i64 24
  %56 = load i64, ptr %55, align 8, !tbaa !319
  %57 = xor i64 %56, %.0
  %58 = getelementptr inbounds nuw i8, ptr %0, i64 8
  %59 = getelementptr inbounds nuw i8, ptr %0, i64 16
  %.promoted.i = load i64, ptr %58, align 8, !tbaa !317
  %.promoted36.i = load i64, ptr %0, align 8, !tbaa !315
  %.promoted40.i = load i64, ptr %59, align 8, !tbaa !318
  br label %60

60:                                               ; preds = %60, %54
  %.042.i = phi i32 [ 0, %54 ], [ %79, %60 ]
  %61 = phi i64 [ %.promoted.i, %54 ], [ %77, %60 ]
  %62 = phi i64 [ %.promoted36.i, %54 ], [ %72, %60 ]
  %63 = phi i64 [ %57, %54 ], [ %74, %60 ]
  %64 = phi i64 [ %.promoted40.i, %54 ], [ %78, %60 ]
  %65 = add i64 %62, %61
  %66 = tail call i64 @llvm.fshl.i64(i64 %61, i64 %61, i64 13)
  %67 = xor i64 %65, %66
  %68 = tail call i64 @llvm.fshl.i64(i64 %65, i64 %65, i64 32)
  %69 = add i64 %64, %63
  %70 = tail call i64 @llvm.fshl.i64(i64 %63, i64 %63, i64 16)
  %71 = xor i64 %69, %70
  %72 = add i64 %71, %68
  %73 = tail call i64 @llvm.fshl.i64(i64 %71, i64 %71, i64 21)
  %74 = xor i64 %73, %72
  %75 = add i64 %69, %67
  %76 = tail call i64 @llvm.fshl.i64(i64 %67, i64 %67, i64 17)
  %77 = xor i64 %75, %76
  %78 = tail call i64 @llvm.fshl.i64(i64 %75, i64 %75, i64 32)
  %79 = add nuw nsw i32 %.042.i, 1
  %exitcond.not.i = icmp eq i32 %79, 2
  br i1 %exitcond.not.i, label %sip_round.exit, label %60, !llvm.loop !348

sip_round.exit:                                   ; preds = %60
  %80 = xor i64 %72, %.0
  %81 = xor i64 %78, 255
  br label %82

82:                                               ; preds = %82, %sip_round.exit
  %.042.i33 = phi i32 [ 0, %sip_round.exit ], [ %101, %82 ]
  %83 = phi i64 [ %77, %sip_round.exit ], [ %99, %82 ]
  %84 = phi i64 [ %80, %sip_round.exit ], [ %94, %82 ]
  %85 = phi i64 [ %74, %sip_round.exit ], [ %96, %82 ]
  %86 = phi i64 [ %81, %sip_round.exit ], [ %100, %82 ]
  %87 = add i64 %84, %83
  %88 = tail call i64 @llvm.fshl.i64(i64 %83, i64 %83, i64 13)
  %89 = xor i64 %87, %88
  %90 = tail call i64 @llvm.fshl.i64(i64 %87, i64 %87, i64 32)
  %91 = add i64 %86, %85
  %92 = tail call i64 @llvm.fshl.i64(i64 %85, i64 %85, i64 16)
  %93 = xor i64 %91, %92
  %94 = add i64 %93, %90
  %95 = tail call i64 @llvm.fshl.i64(i64 %93, i64 %93, i64 21)
  %96 = xor i64 %95, %94
  %97 = add i64 %91, %89
  %98 = tail call i64 @llvm.fshl.i64(i64 %89, i64 %89, i64 17)
  %99 = xor i64 %97, %98
  %100 = tail call i64 @llvm.fshl.i64(i64 %97, i64 %97, i64 32)
  %101 = add nuw nsw i32 %.042.i33, 1
  %exitcond.not.i34 = icmp eq i32 %101, 4
  br i1 %exitcond.not.i34, label %sip_round.exit35, label %82, !llvm.loop !348

sip_round.exit35:                                 ; preds = %82
  store i64 %99, ptr %58, align 8, !tbaa !317
  store i64 %94, ptr %0, align 8, !tbaa !315
  store i64 %96, ptr %55, align 8, !tbaa !319
  store i64 %100, ptr %59, align 8, !tbaa !318
  %102 = xor i64 %94, %99
  %103 = xor i64 %102, %100
  %104 = xor i64 %103, %96
  ret i64 %104
}